Certificate:
    Data:
        Version: 3 (0x2)
        Serial Number: 286211949679186081 (0x3f8d440771990a1)
        Signature Algorithm: ecdsa-with-SHA384
        Issuer: CN=minica root ca 2c8bf1
        Validity
            Not Before: Jun 10 16:31:57 2026 GMT
            Not After : Jul 10 16:31:57 2028 GMT
        Subject: CN=build03.infra.snix.dev
        Subject Public Key Info:
            Public Key Algorithm: id-ecPublicKey
                Public-Key: (384 bit)
                pub:
                    04:60:de:67:dc:01:31:c4:1d:1c:10:70:7d:d9:03:
                    fc:eb:7f:1e:71:01:7f:96:19:74:5e:de:3b:c5:28:
                    10:fe:89:7c:c4:13:7b:3c:e6:a1:2d:6c:3d:e9:fb:
                    d5:82:11:b2:ff:b4:5e:63:e1:4d:69:73:e2:e7:2c:
                    5b:61:54:2e:9d:5e:d9:1b:cd:b0:f0:c3:14:fc:ee:
                    4f:4b:64:1a:c2:d9:6f:9e:4c:54:84:7a:34:92:d9:
                    c1:8e:88:85:03:dc:47
                ASN1 OID: secp384r1
                NIST CURVE: P-384
        X509v3 extensions:
            X509v3 Key Usage: critical
                Digital Signature, Key Encipherment
            X509v3 Extended Key Usage:
                TLS Web Server Authentication, TLS Web Client Authentication
            X509v3 Basic Constraints: critical
                CA:FALSE
            X509v3 Authority Key Identifier:
                27:81:08:A4:57:2A:66:15:9C:B8:83:AD:0B:81:6F:53:B4:ED:7D:16
            X509v3 Subject Alternative Name:
                DNS:build03.infra.snix.dev
    Signature Algorithm: ecdsa-with-SHA384
    Signature Value:
        30:64:02:30:7f:1b:60:2f:ce:91:eb:3d:4f:db:68:28:d1:4f:
        df:82:8a:82:59:19:98:04:51:ff:27:34:e9:24:fd:d0:e8:77:
        da:71:50:f7:54:7d:b1:b2:a1:f5:ec:71:de:10:8b:17:02:30:
        25:da:62:46:9f:a8:d8:14:97:bd:54:c2:94:85:08:e8:4e:12:
        04:ac:9b:cb:49:a4:24:40:e2:f1:69:c5:b4:5a:d6:c0:23:54:
        f8:9d:7e:81:6e:3e:29:e7:01:20:d2:6b
-----BEGIN CERTIFICATE-----
MIIB+DCCAX+gAwIBAgIIA/jUQHcZkKEwCgYIKoZIzj0EAwMwIDEeMBwGA1UEAxMV
bWluaWNhIHJvb3QgY2EgMmM4YmYxMB4XDTI2MDYxMDE2MzE1N1oXDTI4MDcxMDE2
MzE1N1owITEfMB0GA1UEAxMWYnVpbGQwMy5pbmZyYS5zbml4LmRldjB2MBAGByqG
SM49AgEGBSuBBAAiA2IABGDeZ9wBMcQdHBBwfdkD/Ot/HnEBf5YZdF7eO8UoEP6J
fMQTezzmoS1sPen71YIRsv+0XmPhTWlz4ucsW2FULp1e2RvNsPDDFPzuT0tkGsLZ
b55MVIR6NJLZwY6IhQPcR6OBhDCBgTAOBgNVHQ8BAf8EBAMCBaAwHQYDVR0lBBYw
FAYIKwYBBQUHAwEGCCsGAQUFBwMCMAwGA1UdEwEB/wQCMAAwHwYDVR0jBBgwFoAU
J4EIpFcqZhWcuIOtC4FvU7TtfRYwIQYDVR0RBBowGIIWYnVpbGQwMy5pbmZyYS5z
bml4LmRldjAKBggqhkjOPQQDAwNnADBkAjB/G2AvzpHrPU/baCjRT9+CioJZGZgE
Uf8nNOkk/dDod9pxUPdUfbGyofXscd4QixcCMCXaYkafqNgUl71UwpSFCOhOEgSs
m8tJpCRA4vFpxbRa1sAjVPidfoFuPinnASDSaw==
-----END CERTIFICATE-----
